target datalayout = "e-m:e-p270:32:32-p271:32:32-p272:64:64-i64:64-i128:128-f80:128-n8:16:32:64-S128"
target triple = "x86_64-pc-linux-gnu"

%struct.IDAMemRec = type { ptr, double, ptr, ptr, i32, double, double, ptr, i32, i32, ptr, ptr, i32, i32, i32, ptr, ptr, i32, i32, double, double, ptr, i32, i32, i32, i32, ptr, ptr, i32, ptr, ptr, ptr, i32, double, i32, i32, double, ptr, ptr, ptr, i32, ptr, ptr, i32, i32, i32, double, ptr, ptr, ptr, [6 x ptr], [6 x double], [6 x double], [6 x double], [6 x double], [6 x double], ptr, ptr, ptr, ptr, ptr, ptr, ptr, ptr, ptr, ptr, ptr, ptr, ptr, ptr, ptr, ptr, ptr, [6 x ptr], ptr, ptr, ptr, ptr, [6 x ptr], ptr, ptr, ptr, ptr, ptr, ptr, ptr, ptr, ptr, ptr, ptr, ptr, ptr, ptr, ptr, ptr, [6 x ptr], ptr, ptr, ptr, ptr, ptr, double, ptr, ptr, i32, i32, i32, i32, i32, i32, i32, i32, double, double, double, i32, double, i32, i32, i32, i32, i32, double, double, double, double, double, double, double, double, double, double, double, double, double, double, double, double, double, i32, i32, i32, i32, i64, double, double, double, double, double, double, double, double, double, i64, i64, i64, i64, i64, i64, i64, i64, i64, i64, i64, i64, i64, i64, i64, i64, i64, i64, i64, i64, i64, i64, i64, i64, i64, i64, double, i32, i32, i32, i32, i32, i32, i32, i32, i32, i32, i32, i32, i32, ptr, i32, ptr, i32, ptr, i32, ptr, ptr, ptr, ptr, ptr, ptr, i32, i32, ptr, ptr, ptr, ptr, ptr, ptr, ptr, double, i32, i32, ptr, i32, ptr, ptr, double, double, double, ptr, ptr, ptr, double, double, i32, i32, i64, ptr, i32, ptr, [5 x double], ptr, ptr, i32, ptr, i32 }

; Function Attrs: nounwind uwtable
define internal i32 @IDAQuadSensEwtSetSV(ptr noundef %0, ptr noundef %1, ptr noundef %2) #0 {
  %4 = alloca i32, align 4
  %5 = alloca ptr, align 8
  %6 = alloca ptr, align 8
  %7 = alloca ptr, align 8
  %8 = alloca i32, align 4
  %9 = alloca ptr, align 8
  %10 = alloca i32, align 4
  store ptr %0, ptr %5, align 8, !tbaa !8
  store ptr %1, ptr %6, align 8, !tbaa !125
  store ptr %2, ptr %7, align 8, !tbaa !125
  call void @llvm.lifetime.start.p0(i64 4, ptr %8) #10
  call void @llvm.lifetime.start.p0(i64 8, ptr %9) #10
  %11 = load ptr, ptr %5, align 8, !tbaa !8
  %12 = getelementptr inbounds nuw %struct.IDAMemRec, ptr %11, i32 0, i32 75
  %13 = load ptr, ptr %12, align 8, !tbaa !197
  store ptr %13, ptr %9, align 8, !tbaa !124
  store i32 0, ptr %8, align 4, !tbaa !114
  br label %14

14:                                               ; preds = %60, %3
  %15 = load i32, ptr %8, align 4, !tbaa !114
  %16 = load ptr, ptr %5, align 8, !tbaa !8
  %17 = getelementptr inbounds nuw %struct.IDAMemRec, ptr %16, i32 0, i32 24
  %18 = load i32, ptr %17, align 8, !tbaa !203
  %19 = icmp slt i32 %15, %18
  br i1 %19, label %20, label %63

20:                                               ; preds = %14
  %21 = load ptr, ptr %6, align 8, !tbaa !125
  %22 = load i32, ptr %8, align 4, !tbaa !114
  %23 = sext i32 %22 to i64
  %24 = getelementptr inbounds ptr, ptr %21, i64 %23
  %25 = load ptr, ptr %24, align 8, !tbaa !124
  %26 = load ptr, ptr %9, align 8, !tbaa !124
  call void @N_VAbs(ptr noundef %25, ptr noundef %26)
  %27 = load ptr, ptr %5, align 8, !tbaa !8
  %28 = getelementptr inbounds nuw %struct.IDAMemRec, ptr %27, i32 0, i32 46
  %29 = load double, ptr %28, align 8, !tbaa !233
  %30 = load ptr, ptr %9, align 8, !tbaa !124
  %31 = load ptr, ptr %5, align 8, !tbaa !8
  %32 = getelementptr inbounds nuw %struct.IDAMemRec, ptr %31, i32 0, i32 48
  %33 = load ptr, ptr %32, align 8, !tbaa !235
  %34 = load i32, ptr %8, align 4, !tbaa !114
  %35 = sext i32 %34 to i64
  %36 = getelementptr inbounds ptr, ptr %33, i64 %35
  %37 = load ptr, ptr %36, align 8, !tbaa !124
  %38 = load ptr, ptr %9, align 8, !tbaa !124
  call void @N_VLinearSum(double noundef %29, ptr noundef %30, double noundef 1.000000e+00, ptr noundef %37, ptr noundef %38)
  %39 = load ptr, ptr %5, align 8, !tbaa !8
  %40 = getelementptr inbounds nuw %struct.IDAMemRec, ptr %39, i32 0, i32 49
  %41 = load ptr, ptr %40, align 8, !tbaa !82
  %42 = load i32, ptr %8, align 4, !tbaa !114
  %43 = sext i32 %42 to i64
  %44 = getelementptr inbounds i32, ptr %41, i64 %43
  %45 = load i32, ptr %44, align 4, !tbaa !114
  %46 = icmp ne i32 %45, 0
  br i1 %46, label %47, label %53

47:                                               ; preds = %20
  %48 = load ptr, ptr %9, align 8, !tbaa !124
  %49 = call double @N_VMin(ptr noundef %48)
  %50 = fcmp ole double %49, 0.000000e+00
  br i1 %50, label %51, label %52

51:                                               ; preds = %47
  store i32 -1, ptr %4, align 4
  store i32 1, ptr %10, align 4
  br label %64

52:                                               ; preds = %47
  br label %53

53:                                               ; preds = %52, %20
  %54 = load ptr, ptr %9, align 8, !tbaa !124
  %55 = load ptr, ptr %7, align 8, !tbaa !125
  %56 = load i32, ptr %8, align 4, !tbaa !114
  %57 = sext i32 %56 to i64
  %58 = getelementptr inbounds ptr, ptr %55, i64 %57
  %59 = load ptr, ptr %58, align 8, !tbaa !124
  call void @N_VInv(ptr noundef %54, ptr noundef %59)
  br label %60

60:                                               ; preds = %53
  %61 = load i32, ptr %8, align 4, !tbaa !114
  %62 = add nsw i32 %61, 1
  store i32 %62, ptr %8, align 4, !tbaa !114
  br label %14

63:                                               ; preds = %14
  store i32 0, ptr %4, align 4
  store i32 1, ptr %10, align 4
  br label %64

64:                                               ; preds = %63, %51
  call void @llvm.lifetime.end.p0(i64 8, ptr %9) #10
  call void @llvm.lifetime.end.p0(i64 4, ptr %8) #10
  %65 = load i32, ptr %4, align 4
  ret i32 %65
}

; Function Attrs: nounwind uwtable
define internal i32 @IDAQuadSensEwtSetSS(ptr noundef %0, ptr noundef %1, ptr noundef %2) #0 {
  %4 = alloca i32, align 4
  %5 = alloca ptr, align 8
  %6 = alloca ptr, align 8
  %7 = alloca ptr, align 8
  %8 = alloca i32, align 4
  %9 = alloca ptr, align 8
  %10 = alloca i32, align 4
  store ptr %0, ptr %5, align 8, !tbaa !8
  store ptr %1, ptr %6, align 8, !tbaa !125
  store ptr %2, ptr %7, align 8, !tbaa !125
  call void @llvm.lifetime.start.p0(i64 4, ptr %8) #10
  call void @llvm.lifetime.start.p0(i64 8, ptr %9) #10
  %11 = load ptr, ptr %5, align 8, !tbaa !8
  %12 = getelementptr inbounds nuw %struct.IDAMemRec, ptr %11, i32 0, i32 75
  %13 = load ptr, ptr %12, align 8, !tbaa !197
  store ptr %13, ptr %9, align 8, !tbaa !124
  store i32 0, ptr %8, align 4, !tbaa !114
  br label %14

14:                                               ; preds = %62, %3
  %15 = load i32, ptr %8, align 4, !tbaa !114
  %16 = load ptr, ptr %5, align 8, !tbaa !8
  %17 = getelementptr inbounds nuw %struct.IDAMemRec, ptr %16, i32 0, i32 24
  %18 = load i32, ptr %17, align 8, !tbaa !203
  %19 = icmp slt i32 %15, %18
  br i1 %19, label %20, label %65

20:                                               ; preds = %14
  %21 = load ptr, ptr %6, align 8, !tbaa !125
  %22 = load i32, ptr %8, align 4, !tbaa !114
  %23 = sext i32 %22 to i64
  %24 = getelementptr inbounds ptr, ptr %21, i64 %23
  %25 = load ptr, ptr %24, align 8, !tbaa !124
  %26 = load ptr, ptr %9, align 8, !tbaa !124
  call void @N_VAbs(ptr noundef %25, ptr noundef %26)
  %27 = load ptr, ptr %5, align 8, !tbaa !8
  %28 = getelementptr inbounds nuw %struct.IDAMemRec, ptr %27, i32 0, i32 46
  %29 = load double, ptr %28, align 8, !tbaa !233
  %30 = load ptr, ptr %9, align 8, !tbaa !124
  %31 = load ptr, ptr %9, align 8, !tbaa !124
  call void @N_VScale(double noundef %29, ptr noundef %30, ptr noundef %31)
  %32 = load ptr, ptr %9, align 8, !tbaa !124
  %33 = load ptr, ptr %5, align 8, !tbaa !8
  %34 = getelementptr inbounds nuw %struct.IDAMemRec, ptr %33, i32 0, i32 47
  %35 = load ptr, ptr %34, align 8, !tbaa !234
  %36 = load i32, ptr %8, align 4, !tbaa !114
  %37 = sext i32 %36 to i64
  %38 = getelementptr inbounds double, ptr %35, i64 %37
  %39 = load double, ptr %38, align 8, !tbaa !123
  %40 = load ptr, ptr %9, align 8, !tbaa !124
  call void @N_VAddConst(ptr noundef %32, double noundef %39, ptr noundef %40)
  %41 = load ptr, ptr %5, align 8, !tbaa !8
  %42 = getelementptr inbounds nuw %struct.IDAMemRec, ptr %41, i32 0, i32 49
  %43 = load ptr, ptr %42, align 8, !tbaa !82
  %44 = load i32, ptr %8, align 4, !tbaa !114
  %45 = sext i32 %44 to i64
  %46 = getelementptr inbounds i32, ptr %43, i64 %45
  %47 = load i32, ptr %46, align 4, !tbaa !114
  %48 = icmp ne i32 %47, 0
  br i1 %48, label %49, label %55

49:                                               ; preds = %20
  %50 = load ptr, ptr %9, align 8, !tbaa !124
  %51 = call double @N_VMin(ptr noundef %50)
  %52 = fcmp ole double %51, 0.000000e+00
  br i1 %52, label %53, label %54

53:                                               ; preds = %49
  store i32 -1, ptr %4, align 4
  store i32 1, ptr %10, align 4
  br label %66

54:                                               ; preds = %49
  br label %55

55:                                               ; preds = %54, %20
  %56 = load ptr, ptr %9, align 8, !tbaa !124
  %57 = load ptr, ptr %7, align 8, !tbaa !125
  %58 = load i32, ptr %8, align 4, !tbaa !114
  %59 = sext i32 %58 to i64
  %60 = getelementptr inbounds ptr, ptr %57, i64 %59
  %61 = load ptr, ptr %60, align 8, !tbaa !124
  call void @N_VInv(ptr noundef %56, ptr noundef %61)
  br label %62

62:                                               ; preds = %55
  %63 = load i32, ptr %8, align 4, !tbaa !114
  %64 = add nsw i32 %63, 1
  store i32 %64, ptr %8, align 4, !tbaa !114
  br label %14

65:                                               ; preds = %14
  store i32 0, ptr %4, align 4
  store i32 1, ptr %10, align 4
  br label %66

66:                                               ; preds = %65, %53
  call void @llvm.lifetime.end.p0(i64 8, ptr %9) #10
  call void @llvm.lifetime.end.p0(i64 4, ptr %8) #10
  %67 = load i32, ptr %4, align 4
  ret i32 %67
}

; Function Attrs: nounwind uwtable
define internal i32 @IDAQuadSensEwtSetEE(ptr noundef %0, ptr noundef %1, ptr noundef %2) #0 {
  %4 = alloca i32, align 4
  %5 = alloca ptr, align 8
  %6 = alloca ptr, align 8
  %7 = alloca ptr, align 8
  %8 = alloca i32, align 4
  %9 = alloca ptr, align 8
  %10 = alloca i32, align 4
  %11 = alloca i32, align 4
  store ptr %0, ptr %5, align 8, !tbaa !8
  store ptr %1, ptr %6, align 8, !tbaa !125
  store ptr %2, ptr %7, align 8, !tbaa !125
  call void @llvm.lifetime.start.p0(i64 4, ptr %8) #10
  call void @llvm.lifetime.start.p0(i64 8, ptr %9) #10
  call void @llvm.lifetime.start.p0(i64 4, ptr %10) #10
  %12 = load ptr, ptr %5, align 8, !tbaa !8
  %13 = getelementptr inbounds nuw %struct.IDAMemRec, ptr %12, i32 0, i32 99
  %14 = load ptr, ptr %13, align 8, !tbaa !230
  %15 = getelementptr inbounds ptr, ptr %14, i64 0
  %16 = load ptr, ptr %15, align 8, !tbaa !124
  store ptr %16, ptr %9, align 8, !tbaa !124
  store i32 0, ptr %8, align 4, !tbaa !114
  br label %17

17:                                               ; preds = %66, %3
  %18 = load i32, ptr %8, align 4, !tbaa !114
  %19 = load ptr, ptr %5, align 8, !tbaa !8
  %20 = getelementptr inbounds nuw %struct.IDAMemRec, ptr %19, i32 0, i32 24
  %21 = load i32, ptr %20, align 8, !tbaa !203
  %22 = icmp slt i32 %18, %21
  br i1 %22, label %23, label %69

23:                                               ; preds = %17
  %24 = load ptr, ptr %5, align 8, !tbaa !8
  %25 = getelementptr inbounds nuw %struct.IDAMemRec, ptr %24, i32 0, i32 30
  %26 = load ptr, ptr %25, align 8, !tbaa !70
  %27 = load i32, ptr %8, align 4, !tbaa !114
  %28 = sext i32 %27 to i64
  %29 = getelementptr inbounds double, ptr %26, i64 %28
  %30 = load double, ptr %29, align 8, !tbaa !123
  %31 = load ptr, ptr %6, align 8, !tbaa !125
  %32 = load i32, ptr %8, align 4, !tbaa !114
  %33 = sext i32 %32 to i64
  %34 = getelementptr inbounds ptr, ptr %31, i64 %33
  %35 = load ptr, ptr %34, align 8, !tbaa !124
  %36 = load ptr, ptr %9, align 8, !tbaa !124
  call void @N_VScale(double noundef %30, ptr noundef %35, ptr noundef %36)
  %37 = load ptr, ptr %5, align 8, !tbaa !8
  %38 = load ptr, ptr %9, align 8, !tbaa !124
  %39 = load ptr, ptr %7, align 8, !tbaa !125
  %40 = load i32, ptr %8, align 4, !tbaa !114
  %41 = sext i32 %40 to i64
  %42 = getelementptr inbounds ptr, ptr %39, i64 %41
  %43 = load ptr, ptr %42, align 8, !tbaa !124
  %44 = call i32 @IDAQuadEwtSet(ptr noundef %37, ptr noundef %38, ptr noundef %43)
  store i32 %44, ptr %10, align 4, !tbaa !114
  %45 = load i32, ptr %10, align 4, !tbaa !114
  %46 = icmp ne i32 %45, 0
  br i1 %46, label %47, label %48

47:                                               ; preds = %23
  store i32 -1, ptr %4, align 4
  store i32 1, ptr %11, align 4
  br label %70

48:                                               ; preds = %23
  %49 = load ptr, ptr %5, align 8, !tbaa !8
  %50 = getelementptr inbounds nuw %struct.IDAMemRec, ptr %49, i32 0, i32 30
  %51 = load ptr, ptr %50, align 8, !tbaa !70
  %52 = load i32, ptr %8, align 4, !tbaa !114
  %53 = sext i32 %52 to i64
  %54 = getelementptr inbounds double, ptr %51, i64 %53
  %55 = load double, ptr %54, align 8, !tbaa !123
  %56 = load ptr, ptr %7, align 8, !tbaa !125
  %57 = load i32, ptr %8, align 4, !tbaa !114
  %58 = sext i32 %57 to i64
  %59 = getelementptr inbounds ptr, ptr %56, i64 %58
  %60 = load ptr, ptr %59, align 8, !tbaa !124
  %61 = load ptr, ptr %7, align 8, !tbaa !125
  %62 = load i32, ptr %8, align 4, !tbaa !114
  %63 = sext i32 %62 to i64
  %64 = getelementptr inbounds ptr, ptr %61, i64 %63
  %65 = load ptr, ptr %64, align 8, !tbaa !124
  call void @N_VScale(double noundef %55, ptr noundef %60, ptr noundef %65)
  br label %66

66:                                               ; preds = %48
  %67 = load i32, ptr %8, align 4, !tbaa !114
  %68 = add nsw i32 %67, 1
  store i32 %68, ptr %8, align 4, !tbaa !114
  br label %17

69:                                               ; preds = %17
  store i32 0, ptr %4, align 4
  store i32 1, ptr %11, align 4
  br label %70

70:                                               ; preds = %69, %47
  call void @llvm.lifetime.end.p0(i64 4, ptr %10) #10
  call void @llvm.lifetime.end.p0(i64 8, ptr %9) #10
  call void @llvm.lifetime.end.p0(i64 4, ptr %8) #10
  %71 = load i32, ptr %4, align 4
  ret i32 %71
}

; Function Attrs: nounwind uwtable
define i32 @IDAQuadSensEwtSet(ptr noundef %0, ptr noundef %1, ptr noundef %2) #0 {
  %4 = alloca ptr, align 8
  %5 = alloca ptr, align 8
  %6 = alloca ptr, align 8
  %7 = alloca i32, align 4
  store ptr %0, ptr %4, align 8, !tbaa !8
  store ptr %1, ptr %5, align 8, !tbaa !125
  store ptr %2, ptr %6, align 8, !tbaa !125
  call void @llvm.lifetime.start.p0(i64 4, ptr %7) #10
  store i32 0, ptr %7, align 4, !tbaa !114
  %8 = load ptr, ptr %4, align 8, !tbaa !8
  %9 = getelementptr inbounds nuw %struct.IDAMemRec, ptr %8, i32 0, i32 45
  %10 = load i32, ptr %9, align 8, !tbaa !81
  switch i32 %10, label %26 [
    i32 4, label %11
    i32 1, label %16
    i32 2, label %21
  ]

11:                                               ; preds = %3
  %12 = load ptr, ptr %4, align 8, !tbaa !8
  %13 = load ptr, ptr %5, align 8, !tbaa !125
  %14 = load ptr, ptr %6, align 8, !tbaa !125
  %15 = call i32 @IDAQuadSensEwtSetEE(ptr noundef %12, ptr noundef %13, ptr noundef %14)
  store i32 %15, ptr %7, align 4, !tbaa !114
  br label %26

16:                                               ; preds = %3
  %17 = load ptr, ptr %4, align 8, !tbaa !8
  %18 = load ptr, ptr %5, align 8, !tbaa !125
  %19 = load ptr, ptr %6, align 8, !tbaa !125
  %20 = call i32 @IDAQuadSensEwtSetSS(ptr noundef %17, ptr noundef %18, ptr noundef %19)
  store i32 %20, ptr %7, align 4, !tbaa !114
  br label %26

21:                                               ; preds = %3
  %22 = load ptr, ptr %4, align 8, !tbaa !8
  %23 = load ptr, ptr %5, align 8, !tbaa !125
  %24 = load ptr, ptr %6, align 8, !tbaa !125
  %25 = call i32 @IDAQuadSensEwtSetSV(ptr noundef %22, ptr noundef %23, ptr noundef %24)
  store i32 %25, ptr %7, align 4, !tbaa !114
  br label %26

26:                                               ; preds = %3, %21, %16, %11
  %27 = load i32, ptr %7, align 4, !tbaa !114
  call void @llvm.lifetime.end.p0(i64 4, ptr %7) #10
  ret i32 %27
}