; Function Attrs: nounwind uwtable
define range(i32 -1, 1) i32 @IDAQuadSensEwtSet(ptr noundef readonly captures(none) %0, ptr noundef readonly captures(none) %1, ptr noundef readonly captures(none) %2) local_unnamed_addr #0 {
  %4 = getelementptr inbounds nuw i8, ptr %0, i64 304
  %5 = load i32, ptr %4, align 8, !tbaa !60
  switch i32 %5, label %IDAQuadSensEwtSetEE.exit [
    i32 4, label %6
    i32 1, label %30
    i32 2, label %58
  ]

6:                                                ; preds = %3
  %7 = getelementptr inbounds nuw i8, ptr %0, i64 1096
  %8 = load ptr, ptr %7, align 8, !tbaa !193
  %9 = load ptr, ptr %8, align 8, !tbaa !83
  %10 = getelementptr inbounds nuw i8, ptr %0, i64 200
  %11 = getelementptr inbounds nuw i8, ptr %0, i64 160
  %12 = load i32, ptr %11, align 8, !tbaa !167
  %13 = icmp sgt i32 %12, 0
  br i1 %13, label %.lr.ph.i, label %IDAQuadSensEwtSetEE.exit

.lr.ph.i:                                         ; preds = %6, %22
  %indvars.iv.i = phi i64 [ %indvars.iv.next.i, %22 ], [ 0, %6 ]
  %14 = load ptr, ptr %10, align 8, !tbaa !86
  %15 = getelementptr inbounds nuw double, ptr %14, i64 %indvars.iv.i
  %16 = load double, ptr %15, align 8, !tbaa !87
  %17 = getelementptr inbounds nuw ptr, ptr %1, i64 %indvars.iv.i
  %18 = load ptr, ptr %17, align 8, !tbaa !83
  tail call void @N_VScale(double noundef %16, ptr noundef %18, ptr noundef %9) #14
  %19 = getelementptr inbounds nuw ptr, ptr %2, i64 %indvars.iv.i
  %20 = load ptr, ptr %19, align 8, !tbaa !83
  %21 = tail call fastcc i32 @IDAQuadEwtSet(ptr noundef nonnull readonly %0, ptr noundef %9, ptr noundef %20)
  %.not.i = icmp eq i32 %21, 0
  br i1 %.not.i, label %22, label %IDAQuadSensEwtSetEE.exit

22:                                               ; preds = %.lr.ph.i
  %23 = load ptr, ptr %10, align 8, !tbaa !86
  %24 = getelementptr inbounds nuw double, ptr %23, i64 %indvars.iv.i
  %25 = load double, ptr %24, align 8, !tbaa !87
  %26 = load ptr, ptr %19, align 8, !tbaa !83
  tail call void @N_VScale(double noundef %25, ptr noundef %26, ptr noundef %26) #14
  %indvars.iv.next.i = add nuw nsw i64 %indvars.iv.i, 1
  %27 = load i32, ptr %11, align 8, !tbaa !167
  %28 = sext i32 %27 to i64
  %29 = icmp slt i64 %indvars.iv.next.i, %28
  br i1 %29, label %.lr.ph.i, label %IDAQuadSensEwtSetEE.exit

30:                                               ; preds = %3
  %31 = getelementptr inbounds nuw i8, ptr %0, i64 824
  %32 = load ptr, ptr %31, align 8, !tbaa !157
  %33 = getelementptr inbounds nuw i8, ptr %0, i64 160
  %34 = load i32, ptr %33, align 8, !tbaa !167
  %35 = icmp sgt i32 %34, 0
  br i1 %35, label %.lr.ph.i11, label %IDAQuadSensEwtSetEE.exit

.lr.ph.i11:                                       ; preds = %30
  %36 = getelementptr inbounds nuw i8, ptr %0, i64 312
  %37 = getelementptr inbounds nuw i8, ptr %0, i64 320
  %38 = getelementptr inbounds nuw i8, ptr %0, i64 336
  br label %39

39:                                               ; preds = %52, %.lr.ph.i11
  %indvars.iv.i12 = phi i64 [ 0, %.lr.ph.i11 ], [ %indvars.iv.next.i14, %52 ]
  %40 = getelementptr inbounds nuw ptr, ptr %1, i64 %indvars.iv.i12
  %41 = load ptr, ptr %40, align 8, !tbaa !83
  tail call void @N_VAbs(ptr noundef %41, ptr noundef %32) #14
  %42 = load double, ptr %36, align 8, !tbaa !199
  tail call void @N_VScale(double noundef %42, ptr noundef %32, ptr noundef %32) #14
  %43 = load ptr, ptr %37, align 8, !tbaa !201
  %44 = getelementptr inbounds nuw double, ptr %43, i64 %indvars.iv.i12
  %45 = load double, ptr %44, align 8, !tbaa !87
  tail call void @N_VAddConst(ptr noundef %32, double noundef %45, ptr noundef %32) #14
  %46 = load ptr, ptr %38, align 8, !tbaa !61
  %47 = getelementptr inbounds nuw i32, ptr %46, i64 %indvars.iv.i12
  %48 = load i32, ptr %47, align 4, !tbaa !85
  %.not.i13 = icmp eq i32 %48, 0
  br i1 %.not.i13, label %52, label %49

49:                                               ; preds = %39
  %50 = tail call double @N_VMin(ptr noundef %32) #14
  %51 = fcmp ugt double %50, 0.000000e+00
  br i1 %51, label %52, label %IDAQuadSensEwtSetEE.exit

52:                                               ; preds = %49, %39
  %53 = getelementptr inbounds nuw ptr, ptr %2, i64 %indvars.iv.i12
  %54 = load ptr, ptr %53, align 8, !tbaa !83
  tail call void @N_VInv(ptr noundef %32, ptr noundef %54) #14
  %indvars.iv.next.i14 = add nuw nsw i64 %indvars.iv.i12, 1
  %55 = load i32, ptr %33, align 8, !tbaa !167
  %56 = sext i32 %55 to i64
  %57 = icmp slt i64 %indvars.iv.next.i14, %56
  br i1 %57, label %39, label %IDAQuadSensEwtSetEE.exit

58:                                               ; preds = %3
  %59 = getelementptr inbounds nuw i8, ptr %0, i64 824
  %60 = load ptr, ptr %59, align 8, !tbaa !157
  %61 = getelementptr inbounds nuw i8, ptr %0, i64 160
  %62 = load i32, ptr %61, align 8, !tbaa !167
  %63 = icmp sgt i32 %62, 0
  br i1 %63, label %.lr.ph.i16, label %IDAQuadSensEwtSetEE.exit

.lr.ph.i16:                                       ; preds = %58
  %64 = getelementptr inbounds nuw i8, ptr %0, i64 312
  %65 = getelementptr inbounds nuw i8, ptr %0, i64 328
  %66 = getelementptr inbounds nuw i8, ptr %0, i64 336
  br label %67

67:                                               ; preds = %80, %.lr.ph.i16
  %indvars.iv.i17 = phi i64 [ 0, %.lr.ph.i16 ], [ %indvars.iv.next.i19, %80 ]
  %68 = getelementptr inbounds nuw ptr, ptr %1, i64 %indvars.iv.i17
  %69 = load ptr, ptr %68, align 8, !tbaa !83
  tail call void @N_VAbs(ptr noundef %69, ptr noundef %60) #14
  %70 = load double, ptr %64, align 8, !tbaa !199
  %71 = load ptr, ptr %65, align 8, !tbaa !203
  %72 = getelementptr inbounds nuw ptr, ptr %71, i64 %indvars.iv.i17
  %73 = load ptr, ptr %72, align 8, !tbaa !83
  tail call void @N_VLinearSum(double noundef %70, ptr noundef %60, double noundef 1.000000e+00, ptr noundef %73, ptr noundef %60) #14
  %74 = load ptr, ptr %66, align 8, !tbaa !61
  %75 = getelementptr inbounds nuw i32, ptr %74, i64 %indvars.iv.i17
  %76 = load i32, ptr %75, align 4, !tbaa !85
  %.not.i18 = icmp eq i32 %76, 0
  br i1 %.not.i18, label %80, label %77

77:                                               ; preds = %67
  %78 = tail call double @N_VMin(ptr noundef %60) #14
  %79 = fcmp ugt double %78, 0.000000e+00
  br i1 %79, label %80, label %IDAQuadSensEwtSetEE.exit

80:                                               ; preds = %77, %67
  %81 = getelementptr inbounds nuw ptr, ptr %2, i64 %indvars.iv.i17
  %82 = load ptr, ptr %81, align 8, !tbaa !83
  tail call void @N_VInv(ptr noundef %60, ptr noundef %82) #14
  %indvars.iv.next.i19 = add nuw nsw i64 %indvars.iv.i17, 1
  %83 = load i32, ptr %61, align 8, !tbaa !167
  %84 = sext i32 %83 to i64
  %85 = icmp slt i64 %indvars.iv.next.i19, %84
  br i1 %85, label %67, label %IDAQuadSensEwtSetEE.exit

IDAQuadSensEwtSetEE.exit:                         ; preds = %80, %77, %52, %49, %22, %.lr.ph.i, %58, %30, %6, %3
  %.0 = phi i32 [ 0, %3 ], [ 0, %6 ], [ 0, %30 ], [ 0, %58 ], [ -1, %.lr.ph.i ], [ 0, %22 ], [ -1, %49 ], [ 0, %52 ], [ -1, %77 ], [ 0, %80 ]
  ret i32 %.0
}